target datalayout = "e-m:e-p270:32:32-p271:32:32-p272:64:64-i64:64-i128:128-f80:128-n8:16:32:64-S128"
target triple = "x86_64-pc-linux-gnu"

%struct.PlannedStmt = type { i32, i32, i64, i8, i8, i8, i8, i8, i8, i32, ptr, ptr, ptr, ptr, ptr, ptr, ptr, ptr, ptr, ptr, ptr, ptr, ptr, ptr, i32, i32 }
%struct.QueryDesc = type { i32, ptr, ptr, ptr, ptr, ptr, ptr, ptr, i32, ptr, ptr, ptr, i8, ptr }
%struct.List = type { i32, i32, i32, ptr, [0 x %union.ListCell] }
%union.ListCell = type { ptr }
%struct.PortalData = type { ptr, ptr, ptr, ptr, ptr, i32, i32, i32, ptr, i32, %struct.QueryCompletion, ptr, ptr, ptr, ptr, i32, i32, i32, i8, i8, ptr, ptr, ptr, ptr, ptr, ptr, ptr, i8, i8, i64, i64, i8 }
%struct.QueryCompletion = type { i32, i64 }
%struct.Plan = type { i32, i32, double, double, double, i32, i8, i8, i8, i32, ptr, ptr, ptr, ptr, ptr, ptr, ptr }
%struct.__jmp_buf_tag = type { [8 x i64], i32, %struct.__sigset_t }
%struct.__sigset_t = type { [16 x i64] }

@ActivePortal = dso_local global ptr null, align 8
@CurrentResourceOwner = external global ptr, align 8
@PortalContext = external global ptr, align 8
@PG_exception_stack = external global ptr, align 8
@error_context_stack = external global ptr, align 8
@None_Receiver = external global ptr, align 8
@CurrentMemoryContext = external global ptr, align 8

; Function Attrs: nounwind uwtable
define dso_local ptr @CreateQueryDesc(ptr noundef %0, ptr noundef %1, ptr noundef %2, ptr noundef %3, ptr noundef %4, ptr noundef %5, ptr noundef %6, i32 noundef %7) #0 {
  %9 = alloca ptr, align 8
  %10 = alloca ptr, align 8
  %11 = alloca ptr, align 8
  %12 = alloca ptr, align 8
  %13 = alloca ptr, align 8
  %14 = alloca ptr, align 8
  %15 = alloca ptr, align 8
  %16 = alloca i32, align 4
  %17 = alloca ptr, align 8
  store ptr %0, ptr %9, align 8
  store ptr %1, ptr %10, align 8
  store ptr %2, ptr %11, align 8
  store ptr %3, ptr %12, align 8
  store ptr %4, ptr %13, align 8
  store ptr %5, ptr %14, align 8
  store ptr %6, ptr %15, align 8
  store i32 %7, ptr %16, align 4
  call void @llvm.lifetime.start.p0(i64 8, ptr %17) #10
  %18 = call ptr @palloc(i64 noundef 112)
  store ptr %18, ptr %17, align 8
  %19 = load ptr, ptr %9, align 8
  %20 = getelementptr inbounds nuw %struct.PlannedStmt, ptr %19, i32 0, i32 1
  %21 = load i32, ptr %20, align 4
  %22 = load ptr, ptr %17, align 8
  %23 = getelementptr inbounds nuw %struct.QueryDesc, ptr %22, i32 0, i32 0
  store i32 %21, ptr %23, align 8
  %24 = load ptr, ptr %9, align 8
  %25 = load ptr, ptr %17, align 8
  %26 = getelementptr inbounds nuw %struct.QueryDesc, ptr %25, i32 0, i32 1
  store ptr %24, ptr %26, align 8
  %27 = load ptr, ptr %10, align 8
  %28 = load ptr, ptr %17, align 8
  %29 = getelementptr inbounds nuw %struct.QueryDesc, ptr %28, i32 0, i32 2
  store ptr %27, ptr %29, align 8
  %30 = load ptr, ptr %11, align 8
  %31 = call ptr @RegisterSnapshot(ptr noundef %30)
  %32 = load ptr, ptr %17, align 8
  %33 = getelementptr inbounds nuw %struct.QueryDesc, ptr %32, i32 0, i32 3
  store ptr %31, ptr %33, align 8
  %34 = load ptr, ptr %12, align 8
  %35 = call ptr @RegisterSnapshot(ptr noundef %34)
  %36 = load ptr, ptr %17, align 8
  %37 = getelementptr inbounds nuw %struct.QueryDesc, ptr %36, i32 0, i32 4
  store ptr %35, ptr %37, align 8
  %38 = load ptr, ptr %13, align 8
  %39 = load ptr, ptr %17, align 8
  %40 = getelementptr inbounds nuw %struct.QueryDesc, ptr %39, i32 0, i32 5
  store ptr %38, ptr %40, align 8
  %41 = load ptr, ptr %14, align 8
  %42 = load ptr, ptr %17, align 8
  %43 = getelementptr inbounds nuw %struct.QueryDesc, ptr %42, i32 0, i32 6
  store ptr %41, ptr %43, align 8
  %44 = load ptr, ptr %15, align 8
  %45 = load ptr, ptr %17, align 8
  %46 = getelementptr inbounds nuw %struct.QueryDesc, ptr %45, i32 0, i32 7
  store ptr %44, ptr %46, align 8
  %47 = load i32, ptr %16, align 4
  %48 = load ptr, ptr %17, align 8
  %49 = getelementptr inbounds nuw %struct.QueryDesc, ptr %48, i32 0, i32 8
  store i32 %47, ptr %49, align 8
  %50 = load ptr, ptr %17, align 8
  %51 = getelementptr inbounds nuw %struct.QueryDesc, ptr %50, i32 0, i32 9
  store ptr null, ptr %51, align 8
  %52 = load ptr, ptr %17, align 8
  %53 = getelementptr inbounds nuw %struct.QueryDesc, ptr %52, i32 0, i32 10
  store ptr null, ptr %53, align 8
  %54 = load ptr, ptr %17, align 8
  %55 = getelementptr inbounds nuw %struct.QueryDesc, ptr %54, i32 0, i32 11
  store ptr null, ptr %55, align 8
  %56 = load ptr, ptr %17, align 8
  %57 = getelementptr inbounds nuw %struct.QueryDesc, ptr %56, i32 0, i32 13
  store ptr null, ptr %57, align 8
  %58 = load ptr, ptr %17, align 8
  %59 = getelementptr inbounds nuw %struct.QueryDesc, ptr %58, i32 0, i32 12
  store i8 0, ptr %59, align 8
  %60 = load ptr, ptr %17, align 8
  call void @llvm.lifetime.end.p0(i64 8, ptr %17) #10
  ret ptr %60
}

; Function Attrs: inlinehint nounwind uwtable
define internal ptr @list_nth_cell(ptr noundef %0, i32 noundef %1) #3 {
  %3 = alloca ptr, align 8
  %4 = alloca i32, align 4
  store ptr %0, ptr %3, align 8
  store i32 %1, ptr %4, align 4
  %5 = load ptr, ptr %3, align 8
  %6 = getelementptr inbounds nuw %struct.List, ptr %5, i32 0, i32 3
  %7 = load ptr, ptr %6, align 8
  %8 = load i32, ptr %4, align 4
  %9 = sext i32 %8 to i64
  %10 = getelementptr inbounds %union.ListCell, ptr %7, i64 %9
  ret ptr %10
}

; Function Attrs: inlinehint nounwind uwtable
define internal ptr @MemoryContextSwitchTo(ptr noundef %0) #3 {
  %2 = alloca ptr, align 8
  %3 = alloca ptr, align 8
  store ptr %0, ptr %2, align 8
  call void @llvm.lifetime.start.p0(i64 8, ptr %3) #10
  %4 = load ptr, ptr @CurrentMemoryContext, align 8
  store ptr %4, ptr %3, align 8
  %5 = load ptr, ptr %2, align 8
  store ptr %5, ptr @CurrentMemoryContext, align 8
  %6 = load ptr, ptr %3, align 8
  call void @llvm.lifetime.end.p0(i64 8, ptr %3) #10
  ret ptr %6
}

; Function Attrs: nounwind uwtable
define dso_local void @PortalStart(ptr noundef %0, ptr noundef %1, i32 noundef %2, ptr noundef %3) #0 {
  %5 = alloca ptr, align 8
  %6 = alloca ptr, align 8
  %7 = alloca i32, align 4
  %8 = alloca ptr, align 8
  %9 = alloca ptr, align 8
  %10 = alloca ptr, align 8
  %11 = alloca ptr, align 8
  %12 = alloca ptr, align 8
  %13 = alloca ptr, align 8
  %14 = alloca i32, align 4
  %15 = alloca ptr, align 8
  %16 = alloca ptr, align 8
  %17 = alloca [1 x %struct.__jmp_buf_tag], align 16
  %18 = alloca i8, align 1
  %19 = alloca ptr, align 8
  %20 = alloca ptr, align 8
  store ptr %0, ptr %5, align 8
  store ptr %1, ptr %6, align 8
  store i32 %2, ptr %7, align 4
  store ptr %3, ptr %8, align 8
  call void @llvm.lifetime.start.p0(i64 8, ptr %9) #10
  call void @llvm.lifetime.start.p0(i64 8, ptr %10) #10
  call void @llvm.lifetime.start.p0(i64 8, ptr %11) #10
  call void @llvm.lifetime.start.p0(i64 8, ptr %12) #10
  call void @llvm.lifetime.start.p0(i64 8, ptr %13) #10
  call void @llvm.lifetime.start.p0(i64 4, ptr %14) #10
  %21 = load ptr, ptr @ActivePortal, align 8
  store ptr %21, ptr %9, align 8
  %22 = load ptr, ptr @CurrentResourceOwner, align 8
  store ptr %22, ptr %10, align 8
  %23 = load ptr, ptr @PortalContext, align 8
  store ptr %23, ptr %11, align 8
  br label %24

24:                                               ; preds = %4
  call void @llvm.lifetime.start.p0(i64 8, ptr %15) #10
  %25 = load ptr, ptr @PG_exception_stack, align 8
  store ptr %25, ptr %15, align 8
  call void @llvm.lifetime.start.p0(i64 8, ptr %16) #10
  %26 = load ptr, ptr @error_context_stack, align 8
  store ptr %26, ptr %16, align 8
  call void @llvm.lifetime.start.p0(i64 200, ptr %17) #10
  call void @llvm.lifetime.start.p0(i64 1, ptr %18) #10
  store i8 0, ptr %18, align 1
  %27 = getelementptr inbounds [1 x %struct.__jmp_buf_tag], ptr %17, i64 0, i64 0
  %28 = call i32 @__sigsetjmp(ptr noundef %27, i32 noundef 0) #12
  %29 = icmp eq i32 %28, 0
  br i1 %29, label %30, label %145

30:                                               ; preds = %24
  store ptr %17, ptr @PG_exception_stack, align 8
  %31 = load ptr, ptr %5, align 8
  store ptr %31, ptr @ActivePortal, align 8
  %32 = load ptr, ptr %5, align 8
  %33 = getelementptr inbounds nuw %struct.PortalData, ptr %32, i32 0, i32 3
  %34 = load ptr, ptr %33, align 8
  %35 = icmp ne ptr %34, null
  br i1 %35, label %36, label %40

36:                                               ; preds = %30
  %37 = load ptr, ptr %5, align 8
  %38 = getelementptr inbounds nuw %struct.PortalData, ptr %37, i32 0, i32 3
  %39 = load ptr, ptr %38, align 8
  store ptr %39, ptr @CurrentResourceOwner, align 8
  br label %40

40:                                               ; preds = %36, %30
  %41 = load ptr, ptr %5, align 8
  %42 = getelementptr inbounds nuw %struct.PortalData, ptr %41, i32 0, i32 2
  %43 = load ptr, ptr %42, align 8
  store ptr %43, ptr @PortalContext, align 8
  %44 = load ptr, ptr @PortalContext, align 8
  %45 = call ptr @MemoryContextSwitchTo(ptr noundef %44)
  store ptr %45, ptr %12, align 8
  %46 = load ptr, ptr %6, align 8
  %47 = load ptr, ptr %5, align 8
  %48 = getelementptr inbounds nuw %struct.PortalData, ptr %47, i32 0, i32 13
  store ptr %46, ptr %48, align 8
  %49 = load ptr, ptr %5, align 8
  %50 = getelementptr inbounds nuw %struct.PortalData, ptr %49, i32 0, i32 11
  %51 = load ptr, ptr %50, align 8
  %52 = call i32 @ChoosePortalStrategy(ptr noundef %51)
  %53 = load ptr, ptr %5, align 8
  %54 = getelementptr inbounds nuw %struct.PortalData, ptr %53, i32 0, i32 15
  store i32 %52, ptr %54, align 8
  %55 = load ptr, ptr %5, align 8
  %56 = getelementptr inbounds nuw %struct.PortalData, ptr %55, i32 0, i32 15
  %57 = load i32, ptr %56, align 8
  switch i32 %57, label %144 [
    i32 0, label %58
    i32 1, label %109
    i32 2, label %109
    i32 3, label %126
    i32 4, label %141
  ]

58:                                               ; preds = %40
  %59 = load ptr, ptr %8, align 8
  %60 = icmp ne ptr %59, null
  br i1 %60, label %61, label %63

61:                                               ; preds = %58
  %62 = load ptr, ptr %8, align 8
  call void @PushActiveSnapshot(ptr noundef %62)
  br label %65

63:                                               ; preds = %58
  %64 = call ptr @GetTransactionSnapshot()
  call void @PushActiveSnapshot(ptr noundef %64)
  br label %65

65:                                               ; preds = %63, %61
  %66 = load ptr, ptr %5, align 8
  %67 = getelementptr inbounds nuw %struct.PortalData, ptr %66, i32 0, i32 11
  %68 = load ptr, ptr %67, align 8
  %69 = call ptr @list_nth_cell(ptr noundef %68, i32 noundef 0)
  %70 = load ptr, ptr %69, align 8
  %71 = load ptr, ptr %5, align 8
  %72 = getelementptr inbounds nuw %struct.PortalData, ptr %71, i32 0, i32 8
  %73 = load ptr, ptr %72, align 8
  %74 = call ptr @GetActiveSnapshot()
  %75 = load ptr, ptr @None_Receiver, align 8
  %76 = load ptr, ptr %6, align 8
  %77 = load ptr, ptr %5, align 8
  %78 = getelementptr inbounds nuw %struct.PortalData, ptr %77, i32 0, i32 14
  %79 = load ptr, ptr %78, align 8
  %80 = call ptr @CreateQueryDesc(ptr noundef %70, ptr noundef %73, ptr noundef %74, ptr noundef null, ptr noundef %75, ptr noundef %76, ptr noundef %79, i32 noundef 0)
  store ptr %80, ptr %13, align 8
  %81 = load ptr, ptr %5, align 8
  %82 = getelementptr inbounds nuw %struct.PortalData, ptr %81, i32 0, i32 16
  %83 = load i32, ptr %82, align 4
  %84 = and i32 %83, 2
  %85 = icmp ne i32 %84, 0
  br i1 %85, label %86, label %90

86:                                               ; preds = %65
  %87 = load i32, ptr %7, align 4
  %88 = or i32 %87, 4
  %89 = or i32 %88, 8
  store i32 %89, ptr %14, align 4
  br label %92

90:                                               ; preds = %65
  %91 = load i32, ptr %7, align 4
  store i32 %91, ptr %14, align 4
  br label %92

92:                                               ; preds = %90, %86
  %93 = load ptr, ptr %13, align 8
  %94 = load i32, ptr %14, align 4
  call void @ExecutorStart(ptr noundef %93, i32 noundef %94)
  %95 = load ptr, ptr %13, align 8
  %96 = load ptr, ptr %5, align 8
  %97 = getelementptr inbounds nuw %struct.PortalData, ptr %96, i32 0, i32 20
  store ptr %95, ptr %97, align 8
  %98 = load ptr, ptr %13, align 8
  %99 = getelementptr inbounds nuw %struct.QueryDesc, ptr %98, i32 0, i32 9
  %100 = load ptr, ptr %99, align 8
  %101 = load ptr, ptr %5, align 8
  %102 = getelementptr inbounds nuw %struct.PortalData, ptr %101, i32 0, i32 21
  store ptr %100, ptr %102, align 8
  %103 = load ptr, ptr %5, align 8
  %104 = getelementptr inbounds nuw %struct.PortalData, ptr %103, i32 0, i32 27
  store i8 1, ptr %104, align 8
  %105 = load ptr, ptr %5, align 8
  %106 = getelementptr inbounds nuw %struct.PortalData, ptr %105, i32 0, i32 28
  store i8 0, ptr %106, align 1
  %107 = load ptr, ptr %5, align 8
  %108 = getelementptr inbounds nuw %struct.PortalData, ptr %107, i32 0, i32 29
  store i64 0, ptr %108, align 8
  call void @PopActiveSnapshot()
  br label %144

109:                                              ; preds = %40, %40
  call void @llvm.lifetime.start.p0(i64 8, ptr %19) #10
  %110 = load ptr, ptr %5, align 8
  %111 = call ptr @PortalGetPrimaryStmt(ptr noundef %110)
  store ptr %111, ptr %19, align 8
  %112 = load ptr, ptr %19, align 8
  %113 = getelementptr inbounds nuw %struct.PlannedStmt, ptr %112, i32 0, i32 10
  %114 = load ptr, ptr %113, align 8
  %115 = getelementptr inbounds nuw %struct.Plan, ptr %114, i32 0, i32 10
  %116 = load ptr, ptr %115, align 8
  %117 = call ptr @ExecCleanTypeFromTL(ptr noundef %116)
  %118 = load ptr, ptr %5, align 8
  %119 = getelementptr inbounds nuw %struct.PortalData, ptr %118, i32 0, i32 21
  store ptr %117, ptr %119, align 8
  call void @llvm.lifetime.end.p0(i64 8, ptr %19) #10
  %120 = load ptr, ptr %5, align 8
  %121 = getelementptr inbounds nuw %struct.PortalData, ptr %120, i32 0, i32 27
  store i8 1, ptr %121, align 8
  %122 = load ptr, ptr %5, align 8
  %123 = getelementptr inbounds nuw %struct.PortalData, ptr %122, i32 0, i32 28
  store i8 0, ptr %123, align 1
  %124 = load ptr, ptr %5, align 8
  %125 = getelementptr inbounds nuw %struct.PortalData, ptr %124, i32 0, i32 29
  store i64 0, ptr %125, align 8
  br label %144

126:                                              ; preds = %40
  call void @llvm.lifetime.start.p0(i64 8, ptr %20) #10
  %127 = load ptr, ptr %5, align 8
  %128 = call ptr @PortalGetPrimaryStmt(ptr noundef %127)
  store ptr %128, ptr %20, align 8
  %129 = load ptr, ptr %20, align 8
  %130 = getelementptr inbounds nuw %struct.PlannedStmt, ptr %129, i32 0, i32 23
  %131 = load ptr, ptr %130, align 8
  %132 = call ptr @UtilityTupleDescriptor(ptr noundef %131)
  %133 = load ptr, ptr %5, align 8
  %134 = getelementptr inbounds nuw %struct.PortalData, ptr %133, i32 0, i32 21
  store ptr %132, ptr %134, align 8
  call void @llvm.lifetime.end.p0(i64 8, ptr %20) #10
  %135 = load ptr, ptr %5, align 8
  %136 = getelementptr inbounds nuw %struct.PortalData, ptr %135, i32 0, i32 27
  store i8 1, ptr %136, align 8
  %137 = load ptr, ptr %5, align 8
  %138 = getelementptr inbounds nuw %struct.PortalData, ptr %137, i32 0, i32 28
  store i8 0, ptr %138, align 1
  %139 = load ptr, ptr %5, align 8
  %140 = getelementptr inbounds nuw %struct.PortalData, ptr %139, i32 0, i32 29
  store i64 0, ptr %140, align 8
  br label %144

141:                                              ; preds = %40
  %142 = load ptr, ptr %5, align 8
  %143 = getelementptr inbounds nuw %struct.PortalData, ptr %142, i32 0, i32 21
  store ptr null, ptr %143, align 8
  br label %144

144:                                              ; preds = %40, %141, %126, %109, %92
  br label %152

145:                                              ; preds = %24
  %146 = load ptr, ptr %15, align 8
  store ptr %146, ptr @PG_exception_stack, align 8
  %147 = load ptr, ptr %16, align 8
  store ptr %147, ptr @error_context_stack, align 8
  %148 = load ptr, ptr %5, align 8
  call void @MarkPortalFailed(ptr noundef %148)
  %149 = load ptr, ptr %9, align 8
  store ptr %149, ptr @ActivePortal, align 8
  %150 = load ptr, ptr %10, align 8
  store ptr %150, ptr @CurrentResourceOwner, align 8
  %151 = load ptr, ptr %11, align 8
  store ptr %151, ptr @PortalContext, align 8
  call void @pg_re_throw() #13
  unreachable

152:                                              ; preds = %144
  %153 = load i8, ptr %18, align 1, !range !4, !noundef !5
  %154 = trunc i8 %153 to i1
  br i1 %154, label %155, label %156

155:                                              ; preds = %152
  call void @pg_re_throw() #13
  unreachable

156:                                              ; preds = %152
  %157 = load ptr, ptr %15, align 8
  store ptr %157, ptr @PG_exception_stack, align 8
  %158 = load ptr, ptr %16, align 8
  store ptr %158, ptr @error_context_stack, align 8
  call void @llvm.lifetime.end.p0(i64 1, ptr %18) #10
  call void @llvm.lifetime.end.p0(i64 200, ptr %17) #10
  call void @llvm.lifetime.end.p0(i64 8, ptr %16) #10
  call void @llvm.lifetime.end.p0(i64 8, ptr %15) #10
  br label %159

159:                                              ; preds = %156
  br label %160

160:                                              ; preds = %159
  %161 = load ptr, ptr %12, align 8
  %162 = call ptr @MemoryContextSwitchTo(ptr noundef %161)
  %163 = load ptr, ptr %9, align 8
  store ptr %163, ptr @ActivePortal, align 8
  %164 = load ptr, ptr %10, align 8
  store ptr %164, ptr @CurrentResourceOwner, align 8
  %165 = load ptr, ptr %11, align 8
  store ptr %165, ptr @PortalContext, align 8
  %166 = load ptr, ptr %5, align 8
  %167 = getelementptr inbounds nuw %struct.PortalData, ptr %166, i32 0, i32 17
  store i32 2, ptr %167, align 8
  call void @llvm.lifetime.end.p0(i64 4, ptr %14) #10
  call void @llvm.lifetime.end.p0(i64 8, ptr %13) #10
  call void @llvm.lifetime.end.p0(i64 8, ptr %12) #10
  call void @llvm.lifetime.end.p0(i64 8, ptr %11) #10
  call void @llvm.lifetime.end.p0(i64 8, ptr %10) #10
  call void @llvm.lifetime.end.p0(i64 8, ptr %9) #10
  ret void
}