; Function Attrs: nounwind uwtable
define dso_local void @PortalStart(ptr noundef %0, ptr noundef %1, i32 noundef %2, ptr noundef %3) local_unnamed_addr #0 {
  %5 = alloca [1 x %struct.__jmp_buf_tag], align 16
  %6 = load ptr, ptr @ActivePortal, align 8
  %7 = load ptr, ptr @CurrentResourceOwner, align 8
  %8 = load ptr, ptr @PortalContext, align 8
  %9 = load ptr, ptr @PG_exception_stack, align 8
  %10 = load ptr, ptr @error_context_stack, align 8
  call void @llvm.lifetime.start.p0(i64 200, ptr nonnull %5) #11
  %11 = call i32 @__sigsetjmp(ptr noundef nonnull %5, i32 noundef 0) #13
  %12 = icmp eq i32 %11, 0
  br i1 %12, label %13, label %86

13:                                               ; preds = %4
  store ptr %5, ptr @PG_exception_stack, align 8
  store ptr %0, ptr @ActivePortal, align 8
  %14 = getelementptr inbounds nuw i8, ptr %0, i64 24
  %15 = load ptr, ptr %14, align 8
  %.not = icmp eq ptr %15, null
  br i1 %.not, label %17, label %16

16:                                               ; preds = %13
  store ptr %15, ptr @CurrentResourceOwner, align 8
  br label %17

17:                                               ; preds = %16, %13
  %18 = getelementptr inbounds nuw i8, ptr %0, i64 16
  %19 = load ptr, ptr %18, align 8
  store ptr %19, ptr @PortalContext, align 8
  %20 = load ptr, ptr @CurrentMemoryContext, align 8
  store ptr %19, ptr @CurrentMemoryContext, align 8
  %21 = getelementptr inbounds nuw i8, ptr %0, i64 104
  store ptr %1, ptr %21, align 8
  %22 = getelementptr inbounds nuw i8, ptr %0, i64 88
  %23 = load ptr, ptr %22, align 8
  %24 = call i32 @ChoosePortalStrategy(ptr noundef %23)
  %25 = getelementptr inbounds nuw i8, ptr %0, i64 120
  store i32 %24, ptr %25, align 8
  switch i32 %24, label %default.unreachable57 [
    i32 0, label %26
    i32 1, label %64
    i32 2, label %64
    i32 3, label %75
    i32 4, label %84
  ]

26:                                               ; preds = %17
  %.not55 = icmp eq ptr %3, null
  br i1 %.not55, label %27, label %29

27:                                               ; preds = %26
  %28 = call ptr @GetTransactionSnapshot() #11
  br label %29

29:                                               ; preds = %26, %27
  %.sink = phi ptr [ %28, %27 ], [ %3, %26 ]
  call void @PushActiveSnapshot(ptr noundef %.sink) #11
  %30 = load ptr, ptr %22, align 8
  %31 = getelementptr i8, ptr %30, i64 16
  %.val = load ptr, ptr %31, align 8
  %32 = load ptr, ptr %.val, align 8
  %33 = getelementptr inbounds nuw i8, ptr %0, i64 56
  %34 = load ptr, ptr %33, align 8
  %35 = call ptr @GetActiveSnapshot() #11
  %36 = load ptr, ptr @None_Receiver, align 8
  %37 = getelementptr inbounds nuw i8, ptr %0, i64 112
  %38 = load ptr, ptr %37, align 8
  %39 = call ptr @palloc(i64 noundef 112) #11
  %40 = getelementptr inbounds nuw i8, ptr %32, i64 4
  %41 = load i32, ptr %40, align 4
  store i32 %41, ptr %39, align 8
  %42 = getelementptr inbounds nuw i8, ptr %39, i64 8
  store ptr %32, ptr %42, align 8
  %43 = getelementptr inbounds nuw i8, ptr %39, i64 16
  store ptr %34, ptr %43, align 8
  %44 = call ptr @RegisterSnapshot(ptr noundef %35) #11
  %45 = getelementptr inbounds nuw i8, ptr %39, i64 24
  store ptr %44, ptr %45, align 8
  %46 = call ptr @RegisterSnapshot(ptr noundef null) #11
  %47 = getelementptr inbounds nuw i8, ptr %39, i64 32
  store ptr %46, ptr %47, align 8
  %48 = getelementptr inbounds nuw i8, ptr %39, i64 40
  store ptr %36, ptr %48, align 8
  %49 = getelementptr inbounds nuw i8, ptr %39, i64 48
  store ptr %1, ptr %49, align 8
  %50 = getelementptr inbounds nuw i8, ptr %39, i64 56
  store ptr %38, ptr %50, align 8
  %51 = getelementptr inbounds nuw i8, ptr %39, i64 64
  store i32 0, ptr %51, align 8
  %52 = getelementptr inbounds nuw i8, ptr %39, i64 72
  %53 = getelementptr inbounds nuw i8, ptr %39, i64 104
  store ptr null, ptr %53, align 8
  call void @llvm.memset.p0.i64(ptr noundef nonnull align 8 dereferenceable(25) %52, i8 0, i64 25, i1 false)
  %54 = getelementptr inbounds nuw i8, ptr %0, i64 124
  %55 = load i32, ptr %54, align 4
  %56 = and i32 %55, 2
  %.not56 = icmp eq i32 %56, 0
  %57 = or i32 %2, 12
  %.0 = select i1 %.not56, i32 %2, i32 %57
  call void @ExecutorStart(ptr noundef nonnull %39, i32 noundef %.0) #11
  %58 = getelementptr inbounds nuw i8, ptr %0, i64 136
  store ptr %39, ptr %58, align 8
  %59 = load ptr, ptr %52, align 8
  %60 = getelementptr inbounds nuw i8, ptr %0, i64 144
  store ptr %59, ptr %60, align 8
  %61 = getelementptr inbounds nuw i8, ptr %0, i64 192
  store i8 1, ptr %61, align 8
  %62 = getelementptr inbounds nuw i8, ptr %0, i64 193
  store i8 0, ptr %62, align 1
  %63 = getelementptr inbounds nuw i8, ptr %0, i64 200
  store i64 0, ptr %63, align 8
  call void @PopActiveSnapshot() #11
  br label %87

64:                                               ; preds = %17, %17
  %65 = call ptr @PortalGetPrimaryStmt(ptr noundef nonnull %0) #11
  %66 = getelementptr inbounds nuw i8, ptr %65, i64 32
  %67 = load ptr, ptr %66, align 8
  %68 = getelementptr inbounds nuw i8, ptr %67, i64 48
  %69 = load ptr, ptr %68, align 8
  %70 = call ptr @ExecCleanTypeFromTL(ptr noundef %69) #11
  %71 = getelementptr inbounds nuw i8, ptr %0, i64 144
  store ptr %70, ptr %71, align 8
  %72 = getelementptr inbounds nuw i8, ptr %0, i64 192
  store i8 1, ptr %72, align 8
  %73 = getelementptr inbounds nuw i8, ptr %0, i64 193
  store i8 0, ptr %73, align 1
  %74 = getelementptr inbounds nuw i8, ptr %0, i64 200
  store i64 0, ptr %74, align 8
  br label %87

75:                                               ; preds = %17
  %76 = call ptr @PortalGetPrimaryStmt(ptr noundef nonnull %0) #11
  %77 = getelementptr inbounds nuw i8, ptr %76, i64 136
  %78 = load ptr, ptr %77, align 8
  %79 = call ptr @UtilityTupleDescriptor(ptr noundef %78) #11
  %80 = getelementptr inbounds nuw i8, ptr %0, i64 144
  store ptr %79, ptr %80, align 8
  %81 = getelementptr inbounds nuw i8, ptr %0, i64 192
  store i8 1, ptr %81, align 8
  %82 = getelementptr inbounds nuw i8, ptr %0, i64 193
  store i8 0, ptr %82, align 1
  %83 = getelementptr inbounds nuw i8, ptr %0, i64 200
  store i64 0, ptr %83, align 8
  br label %87

84:                                               ; preds = %17
  %85 = getelementptr inbounds nuw i8, ptr %0, i64 144
  store ptr null, ptr %85, align 8
  br label %87

86:                                               ; preds = %4
  store ptr %9, ptr @PG_exception_stack, align 8
  store ptr %10, ptr @error_context_stack, align 8
  call void @MarkPortalFailed(ptr noundef %0) #11
  store ptr %6, ptr @ActivePortal, align 8
  store ptr %7, ptr @CurrentResourceOwner, align 8
  store ptr %8, ptr @PortalContext, align 8
  call void @pg_re_throw() #14
  unreachable

default.unreachable57:                            ; preds = %17
  unreachable

87:                                               ; preds = %84, %75, %64, %29
  store ptr %9, ptr @PG_exception_stack, align 8
  store ptr %10, ptr @error_context_stack, align 8
  call void @llvm.lifetime.end.p0(i64 200, ptr nonnull %5) #11
  store ptr %20, ptr @CurrentMemoryContext, align 8
  store ptr %6, ptr @ActivePortal, align 8
  store ptr %7, ptr @CurrentResourceOwner, align 8
  store ptr %8, ptr @PortalContext, align 8
  %88 = getelementptr inbounds nuw i8, ptr %0, i64 128
  store i32 2, ptr %88, align 8
  ret void
}